; ModuleID = 'bench/gromacs/original/energydrifttracker.cpp.ll'
source_filename = "bench/gromacs/original/energydrifttracker.cpp.ll"
target datalayout = "e-m:e-p270:32:32-p271:32:32-p272:64:64-i64:64-i128:128-f80:128-n8:16:32:64-S128"
target triple = "x86_64-pc-linux-gnu"

%"class.std::__cxx11::basic_string" = type { %"struct.std::__cxx11::basic_string<char>::_Alloc_hider", i64, %union.anon }
%"struct.std::__cxx11::basic_string<char>::_Alloc_hider" = type { ptr }
%union.anon = type { i64, [8 x i8] }

@.str = private unnamed_addr constant [63 x i8] c"Energy conservation over %s of length %g ps, time %g to %g ps\0A\00", align 1
@.str.1 = private unnamed_addr constant [51 x i8] c"  Conserved energy drift: %.2e kJ/mol/ps per atom\0A\00", align 1
@.str.2 = private unnamed_addr constant [77 x i8] c"Time interval for measuring conserved energy has length 0, time %g to %g ps\0A\00", align 1

; Function Attrs: mustprogress nofree norecurse nosync nounwind willreturn memory(argmem: readwrite) uwtable
define void @_ZN3gmx18EnergyDriftTracker8addPointEdd(ptr nocapture noundef nonnull align 8 dereferenceable(44) %0, double noundef %1, double noundef %2) local_unnamed_addr #0 align 2 {
  %4 = load i8, ptr %0, align 8
  %5 = trunc i8 %4 to i1
  br i1 %5, label %9, label %6

6:                                                ; preds = %3
  %7 = getelementptr inbounds i8, ptr %0, i64 8
  store double %1, ptr %7, align 8
  %8 = getelementptr inbounds i8, ptr %0, i64 16
  store double %2, ptr %8, align 8
  store i8 1, ptr %0, align 8
  br label %9

9:                                                ; preds = %6, %3
  %10 = getelementptr inbounds i8, ptr %0, i64 24
  store double %1, ptr %10, align 8
  %11 = getelementptr inbounds i8, ptr %0, i64 32
  store double %2, ptr %11, align 8
  ret void
}

; Function Attrs: mustprogress nofree norecurse nosync nounwind willreturn memory(argmem: read) uwtable
define noundef double @_ZNK3gmx18EnergyDriftTracker11energyDriftEv(ptr nocapture noundef nonnull readonly align 8 dereferenceable(44) %0) local_unnamed_addr #1 align 2 {
  %2 = getelementptr inbounds i8, ptr %0, i64 24
  %3 = load double, ptr %2, align 8
  %4 = getelementptr inbounds i8, ptr %0, i64 8
  %5 = load double, ptr %4, align 8
  %6 = fsub double %3, %5
  %7 = fcmp ogt double %6, 0.000000e+00
  br i1 %7, label %8, label %19

8:                                                ; preds = %1
  %9 = getelementptr inbounds i8, ptr %0, i64 32
  %10 = load double, ptr %9, align 8
  %11 = getelementptr inbounds i8, ptr %0, i64 16
  %12 = load double, ptr %11, align 8
  %13 = fsub double %10, %12
  %14 = getelementptr inbounds i8, ptr %0, i64 40
  %15 = load i32, ptr %14, align 8
  %16 = sitofp i32 %15 to double
  %17 = fmul double %6, %16
  %18 = fdiv double %13, %17
  br label %19

19:                                               ; preds = %1, %8
  %.0 = phi double [ %18, %8 ], [ 0.000000e+00, %1 ]
  ret double %.0
}

; Function Attrs: mustprogress uwtable
define void @_ZNK3gmx18EnergyDriftTracker17energyDriftStringERKNSt7__cxx1112basic_stringIcSt11char_traitsIcESaIcEEE(ptr dead_on_unwind noalias nonnull writable sret(%"class.std::__cxx11::basic_string") align 8 %0, ptr nocapture noundef nonnull readonly align 8 dereferenceable(44) %1, ptr noundef nonnull align 8 dereferenceable(32) %2) local_unnamed_addr #2 align 2 personality ptr @__gxx_personality_v0 {
  %4 = alloca %"class.std::__cxx11::basic_string", align 8
  %5 = alloca %"class.std::__cxx11::basic_string", align 8
  %6 = alloca %"class.std::__cxx11::basic_string", align 8
  tail call void @_ZNSt7__cxx1112basic_stringIcSt11char_traitsIcESaIcEEC1Ev(ptr noundef nonnull align 8 dereferenceable(32) %0) #5
  %7 = getelementptr inbounds i8, ptr %1, i64 24
  %8 = load double, ptr %7, align 8
  %9 = getelementptr inbounds i8, ptr %1, i64 8
  %10 = load double, ptr %9, align 8
  %11 = fsub double %8, %10
  %12 = fcmp ogt double %11, 0.000000e+00
  br i1 %12, label %13, label %41

13:                                               ; preds = %3
  %14 = tail call noundef ptr @_ZNKSt7__cxx1112basic_stringIcSt11char_traitsIcESaIcEE5c_strEv(ptr noundef nonnull align 8 dereferenceable(32) %2) #5
  %15 = load double, ptr %7, align 8
  %16 = load double, ptr %9, align 8
  %17 = fsub double %15, %16
  invoke void (ptr, ptr, ...) @_ZN3gmx12formatStringB5cxx11EPKcz(ptr dead_on_unwind nonnull writable sret(%"class.std::__cxx11::basic_string") align 8 %4, ptr noundef nonnull @.str, ptr noundef %14, double noundef %17, double noundef %16, double noundef %15)
          to label %18 unwind label %37

18:                                               ; preds = %13
  %19 = call noundef nonnull align 8 dereferenceable(32) ptr @_ZNSt7__cxx1112basic_stringIcSt11char_traitsIcESaIcEEaSEOS4_(ptr noundef nonnull align 8 dereferenceable(32) %0, ptr noundef nonnull align 8 dereferenceable(32) %4) #5
  call void @_ZNSt7__cxx1112basic_stringIcSt11char_traitsIcESaIcEED1Ev(ptr noundef nonnull align 8 dereferenceable(32) %4) #5
  %20 = load double, ptr %7, align 8
  %21 = load double, ptr %9, align 8
  %22 = fsub double %20, %21
  %23 = fcmp ogt double %22, 0.000000e+00
  br i1 %23, label %24, label %_ZNK3gmx18EnergyDriftTracker11energyDriftEv.exit

24:                                               ; preds = %18
  %25 = getelementptr inbounds i8, ptr %1, i64 32
  %26 = load double, ptr %25, align 8
  %27 = getelementptr inbounds i8, ptr %1, i64 16
  %28 = load double, ptr %27, align 8
  %29 = fsub double %26, %28
  %30 = getelementptr inbounds i8, ptr %1, i64 40
  %31 = load i32, ptr %30, align 8
  %32 = sitofp i32 %31 to double
  %33 = fmul double %22, %32
  %34 = fdiv double %29, %33
  br label %_ZNK3gmx18EnergyDriftTracker11energyDriftEv.exit

_ZNK3gmx18EnergyDriftTracker11energyDriftEv.exit: ; preds = %24, %18
  %.0.i = phi double [ %34, %24 ], [ 0.000000e+00, %18 ]
  invoke void (ptr, ptr, ...) @_ZN3gmx12formatStringB5cxx11EPKcz(ptr dead_on_unwind nonnull writable sret(%"class.std::__cxx11::basic_string") align 8 %5, ptr noundef nonnull @.str.1, double noundef %.0.i)
          to label %35 unwind label %37

35:                                               ; preds = %_ZNK3gmx18EnergyDriftTracker11energyDriftEv.exit
  %36 = invoke noundef nonnull align 8 dereferenceable(32) ptr @_ZNSt7__cxx1112basic_stringIcSt11char_traitsIcESaIcEEpLERKS4_(ptr noundef nonnull align 8 dereferenceable(32) %0, ptr noundef nonnull align 8 dereferenceable(32) %5)
          to label %44 unwind label %39

37:                                               ; preds = %41, %_ZNK3gmx18EnergyDriftTracker11energyDriftEv.exit, %13
  %38 = landingpad { ptr, i32 }
          cleanup
  br label %45

39:                                               ; preds = %35
  %40 = landingpad { ptr, i32 }
          cleanup
  call void @_ZNSt7__cxx1112basic_stringIcSt11char_traitsIcESaIcEED1Ev(ptr noundef nonnull align 8 dereferenceable(32) %5) #5
  br label %45

41:                                               ; preds = %3
  invoke void (ptr, ptr, ...) @_ZN3gmx12formatStringB5cxx11EPKcz(ptr dead_on_unwind nonnull writable sret(%"class.std::__cxx11::basic_string") align 8 %6, ptr noundef nonnull @.str.2, double noundef %10, double noundef %8)
          to label %42 unwind label %37

42:                                               ; preds = %41
  %43 = call noundef nonnull align 8 dereferenceable(32) ptr @_ZNSt7__cxx1112basic_stringIcSt11char_traitsIcESaIcEEaSEOS4_(ptr noundef nonnull align 8 dereferenceable(32) %0, ptr noundef nonnull align 8 dereferenceable(32) %6) #5
  br label %44

44:                                               ; preds = %35, %42
  %.sink = phi ptr [ %6, %42 ], [ %5, %35 ]
  call void @_ZNSt7__cxx1112basic_stringIcSt11char_traitsIcESaIcEED1Ev(ptr noundef nonnull align 8 dereferenceable(32) %.sink) #5
  ret void

45:                                               ; preds = %39, %37
  %.pn = phi { ptr, i32 } [ %40, %39 ], [ %38, %37 ]
  call void @_ZNSt7__cxx1112basic_stringIcSt11char_traitsIcESaIcEED1Ev(ptr noundef nonnull align 8 dereferenceable(32) %0) #5
  resume { ptr, i32 } %.pn
}

; Function Attrs: nounwind
declare void @_ZNSt7__cxx1112basic_stringIcSt11char_traitsIcESaIcEEC1Ev(ptr noundef nonnull align 8 dereferenceable(32)) unnamed_addr #3

declare void @_ZN3gmx12formatStringB5cxx11EPKcz(ptr dead_on_unwind writable sret(%"class.std::__cxx11::basic_string") align 8, ptr noundef, ...) local_unnamed_addr #4

; Function Attrs: nounwind
declare noundef ptr @_ZNKSt7__cxx1112basic_stringIcSt11char_traitsIcESaIcEE5c_strEv(ptr noundef nonnull align 8 dereferenceable(32)) local_unnamed_addr #3

declare i32 @__gxx_personality_v0(...)

; Function Attrs: nounwind
declare noundef nonnull align 8 dereferenceable(32) ptr @_ZNSt7__cxx1112basic_stringIcSt11char_traitsIcESaIcEEaSEOS4_(ptr noundef nonnull align 8 dereferenceable(32), ptr noundef nonnull align 8 dereferenceable(32)) local_unnamed_addr #3

; Function Attrs: nounwind
declare void @_ZNSt7__cxx1112basic_stringIcSt11char_traitsIcESaIcEED1Ev(ptr noundef nonnull align 8 dereferenceable(32)) unnamed_addr #3

declare noundef nonnull align 8 dereferenceable(32) ptr @_ZNSt7__cxx1112basic_stringIcSt11char_traitsIcESaIcEEpLERKS4_(ptr noundef nonnull align 8 dereferenceable(32), ptr noundef nonnull align 8 dereferenceable(32)) local_unnamed_addr #4


!llvm.module.flags = !{!0, !1, !2, !3, !4}

!0 = !{i32 1, !"wchar_size", i32 4}
!1 = !{i32 7, !"openmp", i32 51}
!2 = !{i32 8, !"PIC Level", i32 2}
!3 = !{i32 7, !"uwtable", i32 2}
!4 = !{i32 7, !"frame-pointer", i32 2}
